(dp0
S'projectName'
p1
S'mmd-prez'
p2
sS'yamlSettingsFlag'
p3
S'/Users/Dave/.bitbucket_credentials.yaml'
p4
sS'strapline'
p5
S'MMD version of prez - a markdown presentation tool using reveal.js'
p6
sS'pathToHostDirectory'
p7
S'/Users/Dave/git_repos'
p8
s.