(dp0
S'projectName'
p1
S'lv_pesstovm03_settings'
p2
sS'yamlSettingsFlag'
p3
S'/Users/Dave/.bitbucket_credentials.yaml'
p4
sS'strapline'
p5
S'Settings and cronscripts for LV code running on PESSTO VM03'
p6
sS'pathToHostDirectory'
p7
S'/Users/Dave/git_repos'
p8
s.