(dp0
S'projectName'
p1
S'bilbo'
p2
sS'yamlSettingsFlag'
p3
S'/Users/Dave/.github_credentials.yaml'
p4
sS'strapline'
p5
S'Commands to help build and maintain a gollum wiki'
p6
sS'pathToHostDirectory'
p7
S'/Users/Dave/git_repos'
p8
s.