(dp0
S'projectName'
p1
S'skytag'
p2
sS'yamlSettingsFlag'
p3
S'/Users/Dave/.github_credentials.yaml'
p4
sS'strapline'
p5
S'Annotate transient sources or galaxies with the percentage credibility region they reside within on a given HealPix sky map.'
p6
sS'pathToHostDirectory'
p7
S'/Users/Dave/git_repos/_packages/python/'
p8
s.