(dp0
S'projectName'
p1
S'imgravy'
p2
sS'yamlSettingsFlag'
p3
S'/Users/Dave/.github_credentials.yaml'
p4
sS'strapline'
p5
S'Some useful tools for imgur'
p6
sS'pathToHostDirectory'
p7
S'/Users/Dave/git_repos'
p8
s.